target datalayout = "e-m:e-p270:32:32-p271:32:32-p272:64:64-i64:64-i128:128-f80:128-n8:16:32:64-S128"
target triple = "x86_64-unknown-linux-gnu"

%"class.icu_75::numparse::impl::ParsedNumber" = type { %"class.icu_75::number::impl::DecimalQuantity", i32, i32, %"class.icu_75::UnicodeString", %"class.icu_75::UnicodeString", [4 x i16] }
%"class.icu_75::number::impl::DecimalQuantity" = type <{ %"class.icu_75::IFixedDecimal", i8, [3 x i8], i32, i32, i8, i8, [2 x i8], double, i32, i32, i32, i32, %union.anon, i8, i8, [6 x i8] }>
%"class.icu_75::IFixedDecimal" = type { ptr }
%union.anon = type { %struct.anon }
%struct.anon = type { ptr, i32 }
%"class.icu_75::UnicodeString" = type { %"class.icu_75::Replaceable", %"union.icu_75::UnicodeString::StackBufferOrFields" }
%"class.icu_75::Replaceable" = type { %"class.icu_75::UObject" }
%"class.icu_75::UObject" = type { ptr }
%"union.icu_75::UnicodeString::StackBufferOrFields" = type { %struct.anon.1, [32 x i8] }
%struct.anon.1 = type { i16, i32, i32, ptr }

; Function Attrs: mustprogress uwtable
define void @_ZNK6icu_758numparse4impl12ParsedNumber19populateFormattableERNS_11FormattableEi(ptr noundef nonnull align 8 dereferenceable(216) %this, ptr noundef nonnull align 8 dereferenceable(112) %output, i32 noundef %parseFlags) #0 align 2 personality ptr @__gxx_personality_v0 {
entry:
  %this.addr = alloca ptr, align 8
  %output.addr = alloca ptr, align 8
  %parseFlags.addr = alloca i32, align 4
  %sawNaN = alloca i8, align 1
  %sawInfinity = alloca i8, align 1
  %integerOnly = alloca i8, align 1
  %saved-rvalue = alloca ptr, align 8
  %cleanup.cond = alloca i1, align 1
  %exn.slot = alloca ptr, align 8
  %ehselector.slot = alloca i32, align 4
  store ptr %this, ptr %this.addr, align 8
  store ptr %output, ptr %output.addr, align 8
  store i32 %parseFlags, ptr %parseFlags.addr, align 4
  %this1 = load ptr, ptr %this.addr, align 8
  %flags = getelementptr inbounds %"class.icu_75::numparse::impl::ParsedNumber", ptr %this1, i32 0, i32 2
  %0 = load i32, ptr %flags, align 4
  %and = and i32 %0, 64
  %cmp = icmp ne i32 0, %and
  %frombool = zext i1 %cmp to i8
  store i8 %frombool, ptr %sawNaN, align 1
  %flags2 = getelementptr inbounds %"class.icu_75::numparse::impl::ParsedNumber", ptr %this1, i32 0, i32 2
  %1 = load i32, ptr %flags2, align 4
  %and3 = and i32 %1, 128
  %cmp4 = icmp ne i32 0, %and3
  %frombool5 = zext i1 %cmp4 to i8
  store i8 %frombool5, ptr %sawInfinity, align 1
  %2 = load i32, ptr %parseFlags.addr, align 4
  %and6 = and i32 %2, 16
  %cmp7 = icmp ne i32 0, %and6
  %frombool8 = zext i1 %cmp7 to i8
  store i8 %frombool8, ptr %integerOnly, align 1
  %3 = load i8, ptr %sawNaN, align 1
  %tobool = trunc i8 %3 to i1
  br i1 %tobool, label %if.then, label %if.end

if.then:                                          ; preds = %entry
  %4 = load ptr, ptr %output.addr, align 8
  %call = call double @uprv_getNaN_75()
  call void @_ZN6icu_7511Formattable9setDoubleEd(ptr noundef nonnull align 8 dereferenceable(112) %4, double noundef %call)
  br label %return

if.end:                                           ; preds = %entry
  %5 = load i8, ptr %sawInfinity, align 1
  %tobool9 = trunc i8 %5 to i1
  br i1 %tobool9, label %if.then10, label %if.end15

if.then10:                                        ; preds = %if.end
  %flags11 = getelementptr inbounds %"class.icu_75::numparse::impl::ParsedNumber", ptr %this1, i32 0, i32 2
  %6 = load i32, ptr %flags11, align 4
  %and12 = and i32 %6, 1
  %cmp13 = icmp ne i32 0, %and12
  br i1 %cmp13, label %if.then14, label %if.else

if.then14:                                        ; preds = %if.then10
  %7 = load ptr, ptr %output.addr, align 8
  call void @_ZN6icu_7511Formattable9setDoubleEd(ptr noundef nonnull align 8 dereferenceable(112) %7, double noundef 0xFFF0000000000000)
  br label %return

if.else:                                          ; preds = %if.then10
  %8 = load ptr, ptr %output.addr, align 8
  call void @_ZN6icu_7511Formattable9setDoubleEd(ptr noundef nonnull align 8 dereferenceable(112) %8, double noundef 0x7FF0000000000000)
  br label %return

if.end15:                                         ; preds = %if.end
  %quantity = getelementptr inbounds %"class.icu_75::numparse::impl::ParsedNumber", ptr %this1, i32 0, i32 0
  %call16 = call noundef zeroext i1 @_ZNK6icu_756number4impl15DecimalQuantity9isZeroishEv(ptr noundef nonnull align 8 dereferenceable(66) %quantity)
  br i1 %call16, label %land.lhs.true, label %if.end22

land.lhs.true:                                    ; preds = %if.end15
  %quantity17 = getelementptr inbounds %"class.icu_75::numparse::impl::ParsedNumber", ptr %this1, i32 0, i32 0
  %call18 = call noundef zeroext i1 @_ZNK6icu_756number4impl15DecimalQuantity10isNegativeEv(ptr noundef nonnull align 8 dereferenceable(66) %quantity17)
  br i1 %call18, label %land.lhs.true19, label %if.end22

land.lhs.true19:                                  ; preds = %land.lhs.true
  %9 = load i8, ptr %integerOnly, align 1
  %tobool20 = trunc i8 %9 to i1
  br i1 %tobool20, label %if.end22, label %if.then21

if.then21:                                        ; preds = %land.lhs.true19
  %10 = load ptr, ptr %output.addr, align 8
  call void @_ZN6icu_7511Formattable9setDoubleEd(ptr noundef nonnull align 8 dereferenceable(112) %10, double noundef -0.000000e+00)
  br label %return

if.end22:                                         ; preds = %land.lhs.true19, %land.lhs.true, %if.end15
  %11 = load ptr, ptr %output.addr, align 8
  %call23 = call noundef ptr @_ZN6icu_757UMemorynwEm(i64 noundef 72) #4
  %new.isnull = icmp eq ptr %call23, null
  store i1 false, ptr %cleanup.cond, align 1
  br i1 %new.isnull, label %new.cont, label %new.notnull

new.notnull:                                      ; preds = %if.end22
  store ptr %call23, ptr %saved-rvalue, align 8
  store i1 true, ptr %cleanup.cond, align 1
  %quantity24 = getelementptr inbounds %"class.icu_75::numparse::impl::ParsedNumber", ptr %this1, i32 0, i32 0
  invoke void @_ZN6icu_756number4impl15DecimalQuantityC1ERKS2_(ptr noundef nonnull align 8 dereferenceable(66) %call23, ptr noundef nonnull align 8 dereferenceable(66) %quantity24)
          to label %invoke.cont unwind label %lpad

invoke.cont:                                      ; preds = %new.notnull
  br label %new.cont

new.cont:                                         ; preds = %invoke.cont, %if.end22
  %12 = phi ptr [ %call23, %invoke.cont ], [ null, %if.end22 ]
  call void @_ZN6icu_7511Formattable20adoptDecimalQuantityEPNS_6number4impl15DecimalQuantityE(ptr noundef nonnull align 8 dereferenceable(112) %11, ptr noundef %12)
  br label %return

return:                                           ; preds = %new.cont, %if.then21, %if.else, %if.then14, %if.then
  ret void

lpad:                                             ; preds = %new.notnull
  %13 = landingpad { ptr, i32 }
          cleanup
  %14 = extractvalue { ptr, i32 } %13, 0
  store ptr %14, ptr %exn.slot, align 8
  %15 = extractvalue { ptr, i32 } %13, 1
  store i32 %15, ptr %ehselector.slot, align 4
  %cleanup.is_active = load i1, ptr %cleanup.cond, align 1
  br i1 %cleanup.is_active, label %cleanup.action, label %cleanup.done

cleanup.action:                                   ; preds = %lpad
  %16 = load ptr, ptr %saved-rvalue, align 8
  call void @_ZN6icu_757UMemorydlEPv(ptr noundef %16) #4
  br label %cleanup.done

cleanup.done:                                     ; preds = %cleanup.action, %lpad
  br label %eh.resume

eh.resume:                                        ; preds = %cleanup.done
  %exn = load ptr, ptr %exn.slot, align 8
  %sel = load i32, ptr %ehselector.slot, align 4
  %lpad.val = insertvalue { ptr, i32 } poison, ptr %exn, 0
  %lpad.val25 = insertvalue { ptr, i32 } %lpad.val, i32 %sel, 1
  resume { ptr, i32 } %lpad.val25
}