; Function Attrs: mustprogress uwtable
define void @_ZNK6icu_758numparse4impl12ParsedNumber19populateFormattableERNS_11FormattableEi(ptr noundef nonnull align 8 dereferenceable(216) %this, ptr noundef nonnull align 8 dereferenceable(112) %output, i32 noundef %parseFlags) local_unnamed_addr #0 align 2 personality ptr @__gxx_personality_v0 {
entry:
  %flags = getelementptr inbounds i8, ptr %this, i64 76
  %0 = load i32, ptr %flags, align 4
  %and = and i32 %0, 64
  %cmp.not = icmp eq i32 %and, 0
  %and6 = and i32 %parseFlags, 16
  %cmp7.not = icmp eq i32 %and6, 0
  br i1 %cmp.not, label %if.end, label %if.then

if.then:                                          ; preds = %entry
  %call = tail call double @uprv_getNaN_75()
  tail call void @_ZN6icu_7511Formattable9setDoubleEd(ptr noundef nonnull align 8 dereferenceable(112) %output, double noundef %call)
  br label %return

if.end:                                           ; preds = %entry
  %and3 = and i32 %0, 128
  %cmp4.not = icmp eq i32 %and3, 0
  br i1 %cmp4.not, label %if.end15, label %if.then10

if.then10:                                        ; preds = %if.end
  %and12 = and i32 %0, 1
  %cmp13.not = icmp eq i32 %and12, 0
  br i1 %cmp13.not, label %if.else, label %if.then14

if.then14:                                        ; preds = %if.then10
  tail call void @_ZN6icu_7511Formattable9setDoubleEd(ptr noundef nonnull align 8 dereferenceable(112) %output, double noundef 0xFFF0000000000000)
  br label %return

if.else:                                          ; preds = %if.then10
  tail call void @_ZN6icu_7511Formattable9setDoubleEd(ptr noundef nonnull align 8 dereferenceable(112) %output, double noundef 0x7FF0000000000000)
  br label %return

if.end15:                                         ; preds = %if.end
  %call16 = tail call noundef zeroext i1 @_ZNK6icu_756number4impl15DecimalQuantity9isZeroishEv(ptr noundef nonnull align 8 dereferenceable(66) %this)
  br i1 %call16, label %land.lhs.true, label %if.end22

land.lhs.true:                                    ; preds = %if.end15
  %call18 = tail call noundef zeroext i1 @_ZNK6icu_756number4impl15DecimalQuantity10isNegativeEv(ptr noundef nonnull align 8 dereferenceable(66) %this)
  %brmerge.not = and i1 %cmp7.not, %call18
  br i1 %brmerge.not, label %if.then21, label %if.end22

if.then21:                                        ; preds = %land.lhs.true
  tail call void @_ZN6icu_7511Formattable9setDoubleEd(ptr noundef nonnull align 8 dereferenceable(112) %output, double noundef -0.000000e+00)
  br label %return

if.end22:                                         ; preds = %land.lhs.true, %if.end15
  %call23 = tail call noundef ptr @_ZN6icu_757UMemorynwEm(i64 noundef 72) #4
  %new.isnull = icmp eq ptr %call23, null
  br i1 %new.isnull, label %new.cont, label %new.notnull

new.notnull:                                      ; preds = %if.end22
  invoke void @_ZN6icu_756number4impl15DecimalQuantityC1ERKS2_(ptr noundef nonnull align 8 dereferenceable(66) %call23, ptr noundef nonnull align 8 dereferenceable(66) %this)
          to label %new.cont unwind label %lpad

new.cont:                                         ; preds = %new.notnull, %if.end22
  tail call void @_ZN6icu_7511Formattable20adoptDecimalQuantityEPNS_6number4impl15DecimalQuantityE(ptr noundef nonnull align 8 dereferenceable(112) %output, ptr noundef %call23)
  br label %return

return:                                           ; preds = %new.cont, %if.then21, %if.else, %if.then14, %if.then
  ret void

lpad:                                             ; preds = %new.notnull
  %1 = landingpad { ptr, i32 }
          cleanup
  tail call void @_ZN6icu_757UMemorydlEPv(ptr noundef nonnull %call23) #4
  resume { ptr, i32 } %1
}